; Function Attrs: nounwind uwtable
define internal void @recff_io_flush(ptr noundef %0, ptr noundef readonly captures(none) %1) #0 {
  %3 = alloca i32, align 4
  call void @llvm.lifetime.start.p0(i64 4, ptr nonnull %3) #9
  %4 = getelementptr inbounds nuw i8, ptr %1, i64 16
  %5 = load i32, ptr %4, align 8, !tbaa !29
  %6 = call fastcc i32 @recff_io_fp(ptr noundef %0, ptr noundef %3, i32 noundef %5)
  %7 = tail call i32 (ptr, i32, ...) @lj_ir_call(ptr noundef %0, i32 noundef 58, i32 noundef %6) #9
  %8 = getelementptr i8, ptr %0, i64 128
  %.val = load ptr, ptr %8, align 8, !tbaa !33
  %9 = getelementptr i8, ptr %.val, i64 32
  %.val.val = load ptr, ptr %9, align 8, !tbaa !34
  %10 = getelementptr i8, ptr %.val.val, i64 -8
  %.val.val.val = load i64, ptr %10, align 8, !tbaa !4
  %11 = and i64 %.val.val.val, 3
  %12 = icmp eq i64 %11, 0
  br i1 %12, label %results_wanted.exit, label %results_wanted.exit.thread

results_wanted.exit:                              ; preds = %2
  %13 = inttoptr i64 %.val.val.val to ptr
  %14 = getelementptr inbounds i8, ptr %13, i64 -4
  %15 = load i32, ptr %14, align 4, !tbaa !39
  %.mask = and i32 %15, -16777216
  %.not = icmp eq i32 %.mask, 16777216
  br i1 %.not, label %23, label %results_wanted.exit.thread

results_wanted.exit.thread:                       ; preds = %2, %results_wanted.exit
  %16 = trunc i32 %7 to i16
  %17 = tail call i32 @lj_ir_kint(ptr noundef nonnull %0, i32 noundef 0) #9
  %18 = trunc i32 %17 to i16
  %19 = getelementptr inbounds nuw i8, ptr %0, i64 184
  %20 = getelementptr inbounds nuw i8, ptr %0, i64 188
  store i16 2195, ptr %20, align 4, !tbaa !4
  store i16 %16, ptr %19, align 8, !tbaa !4
  %21 = getelementptr inbounds nuw i8, ptr %0, i64 186
  store i16 %18, ptr %21, align 2, !tbaa !4
  %22 = tail call i32 @lj_opt_fold(ptr noundef nonnull %0) #9
  br label %23

23:                                               ; preds = %results_wanted.exit.thread, %results_wanted.exit
  %24 = getelementptr inbounds nuw i8, ptr %0, i64 160
  %25 = load ptr, ptr %24, align 8, !tbaa !37
  store i32 33587197, ptr %25, align 4, !tbaa !39
  call void @llvm.lifetime.end.p0(i64 4, ptr nonnull %3) #9
  ret void
}